(lp0
(S'stty'
p1
S'/bin/stty'
p2
tp3
a(S'build_dir'
p4
S'.build/uno'
p5
tp6
a(S'boards.txt'
p7
(lp8
S'/usr/share/arduino/hardware/arduino/boards.txt'
p9
atp10
a(S'avrdude'
p11
S'/usr/share/arduino/hardware/tools/avrdude'
p12
tp13
a(S'avrdude.conf'
p14
S'/usr/share/arduino/hardware/tools/avrdude.conf'
p15
tp16
a(S'board_models'
p17
cino.environment
BoardModels
p18
((lp19
(lp20
S'uno'
p21
a(dp22
S'build'
p23
(dp24
S'core'
p25
S'arduino'
p26
sS'mcu'
p27
S'atmega328p'
p28
sS'f_cpu'
p29
S'16000000L'
p30
sS'variant'
p31
S'standard'
p32
ssS'bootloader'
p33
(dp34
S'extended_fuses'
p35
S'0x05'
p36
sS'high_fuses'
p37
S'0xde'
p38
sS'low_fuses'
p39
S'0xff'
p40
sS'lock_bits'
p41
S'0x0F'
p42
sS'file'
p43
S'optiboot_atmega328.hex'
p44
sS'path'
p45
S'optiboot'
p46
sS'unlock_bits'
p47
S'0x3F'
p48
ssS'upload'
p49
(dp50
S'speed'
p51
S'115200'
p52
sS'maximum_size'
p53
S'32256'
p54
sS'protocol'
p55
S'arduino'
p56
ssS'name'
p57
S'Arduino Uno'
p58
sS'_coredir'
p59
S'/usr/share/arduino/hardware/arduino'
p60
saa(lp61
S'atmega328'
p62
a(dp63
S'build'
p64
(dp65
S'core'
p66
S'arduino'
p67
sS'mcu'
p68
S'atmega328p'
p69
sS'f_cpu'
p70
S'16000000L'
p71
sS'variant'
p72
S'standard'
p73
ssS'bootloader'
p74
(dp75
S'extended_fuses'
p76
S'0x05'
p77
sS'high_fuses'
p78
S'0xDA'
p79
sS'low_fuses'
p80
S'0xFF'
p81
sS'lock_bits'
p82
S'0x0F'
p83
sS'file'
p84
S'ATmegaBOOT_168_atmega328.hex'
p85
sS'path'
p86
S'atmega'
p87
sS'unlock_bits'
p88
S'0x3F'
p89
ssS'upload'
p90
(dp91
S'speed'
p92
S'57600'
p93
sS'maximum_size'
p94
S'30720'
p95
sS'protocol'
p96
S'arduino'
p97
ssS'name'
p98
S'Arduino Duemilanove w/ ATmega328'
p99
sg59
S'/usr/share/arduino/hardware/arduino'
p100
saa(lp101
S'diecimila'
p102
a(dp103
S'build'
p104
(dp105
S'core'
p106
S'arduino'
p107
sS'mcu'
p108
S'atmega168'
p109
sS'f_cpu'
p110
S'16000000L'
p111
sS'variant'
p112
S'standard'
p113
ssS'bootloader'
p114
(dp115
S'extended_fuses'
p116
S'0x00'
p117
sS'high_fuses'
p118
S'0xdd'
p119
sS'low_fuses'
p120
S'0xff'
p121
sS'lock_bits'
p122
S'0x0F'
p123
sS'file'
p124
S'ATmegaBOOT_168_diecimila.hex'
p125
sS'path'
p126
S'atmega'
p127
sS'unlock_bits'
p128
S'0x3F'
p129
ssS'upload'
p130
(dp131
S'speed'
p132
S'19200'
p133
sS'maximum_size'
p134
S'14336'
p135
sS'protocol'
p136
S'arduino'
p137
ssS'name'
p138
S'Arduino Diecimila or Duemilanove w/ ATmega168'
p139
sg59
S'/usr/share/arduino/hardware/arduino'
p140
saa(lp141
S'nano328'
p142
a(dp143
S'build'
p144
(dp145
S'core'
p146
S'arduino'
p147
sS'mcu'
p148
S'atmega328p'
p149
sS'f_cpu'
p150
S'16000000L'
p151
sS'variant'
p152
S'eightanaloginputs'
p153
ssS'bootloader'
p154
(dp155
S'extended_fuses'
p156
S'0x05'
p157
sS'high_fuses'
p158
S'0xDA'
p159
sS'low_fuses'
p160
S'0xFF'
p161
sS'lock_bits'
p162
S'0x0F'
p163
sS'file'
p164
S'ATmegaBOOT_168_atmega328.hex'
p165
sS'path'
p166
S'atmega'
p167
sS'unlock_bits'
p168
S'0x3F'
p169
ssS'upload'
p170
(dp171
S'speed'
p172
S'57600'
p173
sS'maximum_size'
p174
S'30720'
p175
sS'protocol'
p176
S'arduino'
p177
ssS'name'
p178
S'Arduino Nano w/ ATmega328'
p179
sg59
S'/usr/share/arduino/hardware/arduino'
p180
saa(lp181
S'nano'
p182
a(dp183
S'build'
p184
(dp185
S'core'
p186
S'arduino'
p187
sS'mcu'
p188
S'atmega168'
p189
sS'f_cpu'
p190
S'16000000L'
p191
sS'variant'
p192
S'eightanaloginputs'
p193
ssS'bootloader'
p194
(dp195
S'extended_fuses'
p196
S'0x00'
p197
sS'high_fuses'
p198
S'0xdd'
p199
sS'low_fuses'
p200
S'0xff'
p201
sS'lock_bits'
p202
S'0x0F'
p203
sS'file'
p204
S'ATmegaBOOT_168_diecimila.hex'
p205
sS'path'
p206
S'atmega'
p207
sS'unlock_bits'
p208
S'0x3F'
p209
ssS'upload'
p210
(dp211
S'speed'
p212
S'19200'
p213
sS'maximum_size'
p214
S'14336'
p215
sS'protocol'
p216
S'arduino'
p217
ssS'name'
p218
S'Arduino Nano w/ ATmega168'
p219
sg59
S'/usr/share/arduino/hardware/arduino'
p220
saa(lp221
S'mega2560'
p222
a(dp223
S'build'
p224
(dp225
S'core'
p226
S'arduino'
p227
sS'mcu'
p228
S'atmega2560'
p229
sS'f_cpu'
p230
S'16000000L'
p231
sS'variant'
p232
S'mega'
p233
ssS'bootloader'
p234
(dp235
S'extended_fuses'
p236
S'0xFD'
p237
sS'high_fuses'
p238
S'0xD8'
p239
sS'low_fuses'
p240
S'0xFF'
p241
sS'lock_bits'
p242
S'0x0F'
p243
sS'file'
p244
S'stk500boot_v2_mega2560.hex'
p245
sS'path'
p246
S'stk500v2'
p247
sS'unlock_bits'
p248
S'0x3F'
p249
ssS'upload'
p250
(dp251
S'speed'
p252
S'115200'
p253
sS'maximum_size'
p254
S'258048'
p255
sS'protocol'
p256
S'wiring'
p257
ssS'name'
p258
S'Arduino Mega 2560 or Mega ADK'
p259
sg59
S'/usr/share/arduino/hardware/arduino'
p260
saa(lp261
S'mega'
p262
a(dp263
S'build'
p264
(dp265
S'core'
p266
S'arduino'
p267
sS'mcu'
p268
S'atmega1280'
p269
sS'f_cpu'
p270
S'16000000L'
p271
sS'variant'
p272
S'mega'
p273
ssS'bootloader'
p274
(dp275
S'extended_fuses'
p276
S'0xF5'
p277
sS'high_fuses'
p278
S'0xDA'
p279
sS'low_fuses'
p280
S'0xFF'
p281
sS'lock_bits'
p282
S'0x0F'
p283
sS'file'
p284
S'ATmegaBOOT_168_atmega1280.hex'
p285
sS'path'
p286
S'atmega'
p287
sS'unlock_bits'
p288
S'0x3F'
p289
ssS'upload'
p290
(dp291
S'speed'
p292
S'57600'
p293
sS'maximum_size'
p294
S'126976'
p295
sS'protocol'
p296
S'arduino'
p297
ssS'name'
p298
S'Arduino Mega (ATmega1280)'
p299
sg59
S'/usr/share/arduino/hardware/arduino'
p300
saa(lp301
S'leonardo'
p302
a(dp303
S'build'
p304
(dp305
S'core'
p306
S'arduino'
p307
sS'f_cpu'
p308
S'16000000L'
p309
sS'vid'
p310
S'0x2341'
p311
sS'pid'
p312
S'0x8036'
p313
sS'variant'
p314
S'leonardo'
p315
sS'mcu'
p316
S'atmega32u4'
p317
ssS'bootloader'
p318
(dp319
S'extended_fuses'
p320
S'0xcb'
p321
sS'high_fuses'
p322
S'0xd8'
p323
sS'low_fuses'
p324
S'0xff'
p325
sS'lock_bits'
p326
S'0x2F'
p327
sS'file'
p328
S'Caterina-Leonardo.hex'
p329
sS'path'
p330
S'caterina'
p331
sS'unlock_bits'
p332
S'0x3F'
p333
ssS'upload'
p334
(dp335
S'speed'
p336
S'57600'
p337
sS'maximum_size'
p338
S'28672'
p339
sS'protocol'
p340
S'avr109'
p341
sS'disable_flushing'
p342
S'true'
p343
ssS'name'
p344
S'Arduino Leonardo'
p345
sg59
S'/usr/share/arduino/hardware/arduino'
p346
saa(lp347
S'esplora'
p348
a(dp349
S'build'
p350
(dp351
S'core'
p352
S'arduino'
p353
sS'f_cpu'
p354
S'16000000L'
p355
sS'vid'
p356
S'0x2341'
p357
sS'pid'
p358
S'0x803C'
p359
sS'variant'
p360
S'leonardo'
p361
sS'mcu'
p362
S'atmega32u4'
p363
ssS'bootloader'
p364
(dp365
S'extended_fuses'
p366
S'0xcb'
p367
sS'high_fuses'
p368
S'0xd8'
p369
sS'low_fuses'
p370
S'0xff'
p371
sS'lock_bits'
p372
S'0x2F'
p373
sS'file'
p374
S'Caterina-Esplora.hex'
p375
sS'path'
p376
S'caterina'
p377
sS'unlock_bits'
p378
S'0x3F'
p379
ssS'upload'
p380
(dp381
S'speed'
p382
S'57600'
p383
sS'maximum_size'
p384
S'28672'
p385
sS'protocol'
p386
S'avr109'
p387
sS'disable_flushing'
p388
S'true'
p389
ssS'name'
p390
S'Arduino Esplora'
p391
sg59
S'/usr/share/arduino/hardware/arduino'
p392
saa(lp393
S'micro'
p394
a(dp395
S'build'
p396
(dp397
S'core'
p398
S'arduino'
p399
sS'f_cpu'
p400
S'16000000L'
p401
sS'vid'
p402
S'0x2341'
p403
sS'pid'
p404
S'0x8037'
p405
sS'variant'
p406
S'micro'
p407
sS'mcu'
p408
S'atmega32u4'
p409
ssS'bootloader'
p410
(dp411
S'extended_fuses'
p412
S'0xcb'
p413
sS'high_fuses'
p414
S'0xd8'
p415
sS'low_fuses'
p416
S'0xff'
p417
sS'lock_bits'
p418
S'0x2F'
p419
sS'file'
p420
S'Caterina-Micro.hex'
p421
sS'path'
p422
S'caterina'
p423
sS'unlock_bits'
p424
S'0x3F'
p425
ssS'upload'
p426
(dp427
S'speed'
p428
S'57600'
p429
sS'maximum_size'
p430
S'28672'
p431
sS'protocol'
p432
S'avr109'
p433
sS'disable_flushing'
p434
S'true'
p435
ssS'name'
p436
S'Arduino Micro'
p437
sg59
S'/usr/share/arduino/hardware/arduino'
p438
saa(lp439
S'mini328'
p440
a(dp441
S'build'
p442
(dp443
S'core'
p444
S'arduino'
p445
sS'mcu'
p446
S'atmega328p'
p447
sS'f_cpu'
p448
S'16000000L'
p449
sS'variant'
p450
S'eightanaloginputs'
p451
ssS'bootloader'
p452
(dp453
S'extended_fuses'
p454
S'0x05'
p455
sS'high_fuses'
p456
S'0xd8'
p457
sS'low_fuses'
p458
S'0xff'
p459
sS'lock_bits'
p460
S'0x0F'
p461
sS'file'
p462
S'optiboot_atmega328-Mini.hex'
p463
sS'path'
p464
S'optiboot'
p465
sS'unlock_bits'
p466
S'0x3F'
p467
ssS'upload'
p468
(dp469
S'speed'
p470
S'115200'
p471
sS'maximum_size'
p472
S'28672'
p473
sS'protocol'
p474
S'arduino'
p475
ssS'name'
p476
S'Arduino Mini w/ ATmega328'
p477
sg59
S'/usr/share/arduino/hardware/arduino'
p478
saa(lp479
S'mini'
p480
a(dp481
S'build'
p482
(dp483
S'core'
p484
S'arduino'
p485
sS'mcu'
p486
S'atmega168'
p487
sS'f_cpu'
p488
S'16000000L'
p489
sS'variant'
p490
S'eightanaloginputs'
p491
ssS'bootloader'
p492
(dp493
S'extended_fuses'
p494
S'0x00'
p495
sS'high_fuses'
p496
S'0xdd'
p497
sS'low_fuses'
p498
S'0xff'
p499
sS'lock_bits'
p500
S'0x0F'
p501
sS'file'
p502
S'ATmegaBOOT_168_ng.hex'
p503
sS'path'
p504
S'atmega'
p505
sS'unlock_bits'
p506
S'0x3F'
p507
ssS'upload'
p508
(dp509
S'speed'
p510
S'19200'
p511
sS'maximum_size'
p512
S'14336'
p513
sS'protocol'
p514
S'arduino'
p515
ssS'name'
p516
S'Arduino Mini w/ ATmega168'
p517
sg59
S'/usr/share/arduino/hardware/arduino'
p518
saa(lp519
S'ethernet'
p520
a(dp521
S'build'
p522
(dp523
S'f_cpu'
p524
S'16000000L'
p525
sS'mcu'
p526
S'atmega328p'
p527
sS'variant'
p528
S'standard'
p529
sS'core'
p530
S'arduino'
p531
ssS'bootloader'
p532
(dp533
S'extended_fuses'
p534
S'0x05'
p535
sS'high_fuses'
p536
S'0xde'
p537
sS'low_fuses'
p538
S'0xff'
p539
sS'lock_bits'
p540
S'0x0F'
p541
sS'file'
p542
S'optiboot_atmega328.hex'
p543
sS'path'
p544
S'optiboot'
p545
sS'unlock_bits'
p546
S'0x3F'
p547
ssS'upload'
p548
(dp549
S'speed'
p550
S'115200'
p551
sS'maximum_size'
p552
S'32256'
p553
sS'protocol'
p554
S'arduino'
p555
ssS'name'
p556
S'Arduino Ethernet'
p557
sg59
S'/usr/share/arduino/hardware/arduino'
p558
saa(lp559
S'fio'
p560
a(dp561
S'build'
p562
(dp563
S'core'
p564
S'arduino'
p565
sS'mcu'
p566
S'atmega328p'
p567
sS'f_cpu'
p568
S'8000000L'
p569
sS'variant'
p570
S'eightanaloginputs'
p571
ssS'bootloader'
p572
(dp573
S'extended_fuses'
p574
S'0x05'
p575
sS'high_fuses'
p576
S'0xDA'
p577
sS'low_fuses'
p578
S'0xFF'
p579
sS'lock_bits'
p580
S'0x0F'
p581
sS'file'
p582
S'ATmegaBOOT_168_atmega328_pro_8MHz.hex'
p583
sS'path'
p584
S'arduino:atmega'
p585
sS'unlock_bits'
p586
S'0x3F'
p587
ssS'upload'
p588
(dp589
S'speed'
p590
S'57600'
p591
sS'maximum_size'
p592
S'30720'
p593
sS'protocol'
p594
S'arduino'
p595
ssS'name'
p596
S'Arduino Fio'
p597
sg59
S'/usr/share/arduino/hardware/arduino'
p598
saa(lp599
S'bt328'
p600
a(dp601
S'build'
p602
(dp603
S'core'
p604
S'arduino'
p605
sS'mcu'
p606
S'atmega328p'
p607
sS'f_cpu'
p608
S'16000000L'
p609
sS'variant'
p610
S'eightanaloginputs'
p611
ssS'bootloader'
p612
(dp613
S'extended_fuses'
p614
S'0x05'
p615
sS'high_fuses'
p616
S'0xd8'
p617
sS'low_fuses'
p618
S'0xff'
p619
sS'lock_bits'
p620
S'0x0F'
p621
sS'file'
p622
S'ATmegaBOOT_168_atmega328_bt.hex'
p623
sS'path'
p624
S'bt'
p625
sS'unlock_bits'
p626
S'0x3F'
p627
ssS'upload'
p628
(dp629
S'speed'
p630
S'19200'
p631
sS'maximum_size'
p632
S'28672'
p633
sS'protocol'
p634
S'arduino'
p635
sS'disable_flushing'
p636
S'true'
p637
ssS'name'
p638
S'Arduino BT w/ ATmega328'
p639
sg59
S'/usr/share/arduino/hardware/arduino'
p640
saa(lp641
S'bt'
p642
a(dp643
S'build'
p644
(dp645
S'core'
p646
S'arduino'
p647
sS'mcu'
p648
S'atmega168'
p649
sS'f_cpu'
p650
S'16000000L'
p651
sS'variant'
p652
S'eightanaloginputs'
p653
ssS'bootloader'
p654
(dp655
S'extended_fuses'
p656
S'0x00'
p657
sS'high_fuses'
p658
S'0xdd'
p659
sS'low_fuses'
p660
S'0xff'
p661
sS'lock_bits'
p662
S'0x0F'
p663
sS'file'
p664
S'ATmegaBOOT_168.hex'
p665
sS'path'
p666
S'bt'
p667
sS'unlock_bits'
p668
S'0x3F'
p669
ssS'upload'
p670
(dp671
S'speed'
p672
S'19200'
p673
sS'maximum_size'
p674
S'14336'
p675
sS'protocol'
p676
S'arduino'
p677
sS'disable_flushing'
p678
S'true'
p679
ssS'name'
p680
S'Arduino BT w/ ATmega168'
p681
sg59
S'/usr/share/arduino/hardware/arduino'
p682
saa(lp683
S'LilyPadUSB'
p684
a(dp685
S'build'
p686
(dp687
S'core'
p688
S'arduino'
p689
sS'f_cpu'
p690
S'8000000L'
p691
sS'vid'
p692
S'0x1B4F'
p693
sS'pid'
p694
S'0x9208'
p695
sS'variant'
p696
S'leonardo'
p697
sS'mcu'
p698
S'atmega32u4'
p699
ssS'bootloader'
p700
(dp701
S'extended_fuses'
p702
S'0xce'
p703
sS'high_fuses'
p704
S'0xd8'
p705
sS'low_fuses'
p706
S'0xff'
p707
sS'lock_bits'
p708
S'0x2F'
p709
sS'file'
p710
S'Caterina-LilyPadUSB.hex'
p711
sS'path'
p712
S'caterina-LilyPadUSB'
p713
sS'unlock_bits'
p714
S'0x3F'
p715
ssS'upload'
p716
(dp717
S'speed'
p718
S'57600'
p719
sS'maximum_size'
p720
S'28672'
p721
sS'protocol'
p722
S'avr109'
p723
sS'disable_flushing'
p724
S'true'
p725
ssS'name'
p726
S'LilyPad Arduino USB'
p727
sg59
S'/usr/share/arduino/hardware/arduino'
p728
saa(lp729
S'lilypad328'
p730
a(dp731
S'build'
p732
(dp733
S'core'
p734
S'arduino'
p735
sS'mcu'
p736
S'atmega328p'
p737
sS'f_cpu'
p738
S'8000000L'
p739
sS'variant'
p740
S'standard'
p741
ssS'bootloader'
p742
(dp743
S'extended_fuses'
p744
S'0x05'
p745
sS'high_fuses'
p746
S'0xDA'
p747
sS'low_fuses'
p748
S'0xFF'
p749
sS'lock_bits'
p750
S'0x0F'
p751
sS'file'
p752
S'ATmegaBOOT_168_atmega328_pro_8MHz.hex'
p753
sS'path'
p754
S'atmega'
p755
sS'unlock_bits'
p756
S'0x3F'
p757
ssS'upload'
p758
(dp759
S'speed'
p760
S'57600'
p761
sS'maximum_size'
p762
S'30720'
p763
sS'protocol'
p764
S'arduino'
p765
ssS'name'
p766
S'LilyPad Arduino w/ ATmega328'
p767
sg59
S'/usr/share/arduino/hardware/arduino'
p768
saa(lp769
S'lilypad'
p770
a(dp771
S'build'
p772
(dp773
S'core'
p774
S'arduino'
p775
sS'mcu'
p776
S'atmega168'
p777
sS'f_cpu'
p778
S'8000000L'
p779
sS'variant'
p780
S'standard'
p781
ssS'bootloader'
p782
(dp783
S'extended_fuses'
p784
S'0x00'
p785
sS'high_fuses'
p786
S'0xdd'
p787
sS'low_fuses'
p788
S'0xe2'
p789
sS'lock_bits'
p790
S'0x0F'
p791
sS'file'
p792
S'LilyPadBOOT_168.hex'
p793
sS'path'
p794
S'lilypad'
p795
sS'unlock_bits'
p796
S'0x3F'
p797
ssS'upload'
p798
(dp799
S'speed'
p800
S'19200'
p801
sS'maximum_size'
p802
S'14336'
p803
sS'protocol'
p804
S'arduino'
p805
ssS'name'
p806
S'LilyPad Arduino w/ ATmega168'
p807
sg59
S'/usr/share/arduino/hardware/arduino'
p808
saa(lp809
S'pro5v328'
p810
a(dp811
S'build'
p812
(dp813
S'core'
p814
S'arduino'
p815
sS'mcu'
p816
S'atmega328p'
p817
sS'f_cpu'
p818
S'16000000L'
p819
sS'variant'
p820
S'standard'
p821
ssS'bootloader'
p822
(dp823
S'extended_fuses'
p824
S'0x05'
p825
sS'high_fuses'
p826
S'0xDA'
p827
sS'low_fuses'
p828
S'0xFF'
p829
sS'lock_bits'
p830
S'0x0F'
p831
sS'file'
p832
S'ATmegaBOOT_168_atmega328.hex'
p833
sS'path'
p834
S'atmega'
p835
sS'unlock_bits'
p836
S'0x3F'
p837
ssS'upload'
p838
(dp839
S'speed'
p840
S'57600'
p841
sS'maximum_size'
p842
S'30720'
p843
sS'protocol'
p844
S'arduino'
p845
ssS'name'
p846
S'Arduino Pro or Pro Mini (5V, 16 MHz) w/ ATmega328'
p847
sg59
S'/usr/share/arduino/hardware/arduino'
p848
saa(lp849
S'pro5v'
p850
a(dp851
S'build'
p852
(dp853
S'core'
p854
S'arduino'
p855
sS'mcu'
p856
S'atmega168'
p857
sS'f_cpu'
p858
S'16000000L'
p859
sS'variant'
p860
S'standard'
p861
ssS'bootloader'
p862
(dp863
S'extended_fuses'
p864
S'0x00'
p865
sS'high_fuses'
p866
S'0xdd'
p867
sS'low_fuses'
p868
S'0xff'
p869
sS'lock_bits'
p870
S'0x0F'
p871
sS'file'
p872
S'ATmegaBOOT_168_diecimila.hex'
p873
sS'path'
p874
S'atmega'
p875
sS'unlock_bits'
p876
S'0x3F'
p877
ssS'upload'
p878
(dp879
S'speed'
p880
S'19200'
p881
sS'maximum_size'
p882
S'14336'
p883
sS'protocol'
p884
S'arduino'
p885
ssS'name'
p886
S'Arduino Pro or Pro Mini (5V, 16 MHz) w/ ATmega168'
p887
sg59
S'/usr/share/arduino/hardware/arduino'
p888
saa(lp889
S'pro328'
p890
a(dp891
S'build'
p892
(dp893
S'core'
p894
S'arduino'
p895
sS'mcu'
p896
S'atmega328p'
p897
sS'f_cpu'
p898
S'8000000L'
p899
sS'variant'
p900
S'standard'
p901
ssS'bootloader'
p902
(dp903
S'extended_fuses'
p904
S'0x05'
p905
sS'high_fuses'
p906
S'0xDA'
p907
sS'low_fuses'
p908
S'0xFF'
p909
sS'lock_bits'
p910
S'0x0F'
p911
sS'file'
p912
S'ATmegaBOOT_168_atmega328_pro_8MHz.hex'
p913
sS'path'
p914
S'atmega'
p915
sS'unlock_bits'
p916
S'0x3F'
p917
ssS'upload'
p918
(dp919
S'speed'
p920
S'57600'
p921
sS'maximum_size'
p922
S'30720'
p923
sS'protocol'
p924
S'arduino'
p925
ssS'name'
p926
S'Arduino Pro or Pro Mini (3.3V, 8 MHz) w/ ATmega328'
p927
sg59
S'/usr/share/arduino/hardware/arduino'
p928
saa(lp929
S'pro'
p930
a(dp931
S'build'
p932
(dp933
S'core'
p934
S'arduino'
p935
sS'mcu'
p936
S'atmega168'
p937
sS'f_cpu'
p938
S'8000000L'
p939
sS'variant'
p940
S'standard'
p941
ssS'bootloader'
p942
(dp943
S'extended_fuses'
p944
S'0x00'
p945
sS'high_fuses'
p946
S'0xdd'
p947
sS'low_fuses'
p948
S'0xc6'
p949
sS'lock_bits'
p950
S'0x0F'
p951
sS'file'
p952
S'ATmegaBOOT_168_pro_8MHz.hex'
p953
sS'path'
p954
S'atmega'
p955
sS'unlock_bits'
p956
S'0x3F'
p957
ssS'upload'
p958
(dp959
S'speed'
p960
S'19200'
p961
sS'maximum_size'
p962
S'14336'
p963
sS'protocol'
p964
S'arduino'
p965
ssS'name'
p966
S'Arduino Pro or Pro Mini (3.3V, 8 MHz) w/ ATmega168'
p967
sg59
S'/usr/share/arduino/hardware/arduino'
p968
saa(lp969
S'atmega168'
p970
a(dp971
S'build'
p972
(dp973
S'core'
p974
S'arduino'
p975
sS'mcu'
p976
S'atmega168'
p977
sS'f_cpu'
p978
S'16000000L'
p979
sS'variant'
p980
S'standard'
p981
ssS'bootloader'
p982
(dp983
S'extended_fuses'
p984
S'0x00'
p985
sS'high_fuses'
p986
S'0xdd'
p987
sS'low_fuses'
p988
S'0xff'
p989
sS'lock_bits'
p990
S'0x0F'
p991
sS'file'
p992
S'ATmegaBOOT_168_ng.hex'
p993
sS'path'
p994
S'atmega'
p995
sS'unlock_bits'
p996
S'0x3F'
p997
ssS'upload'
p998
(dp999
S'speed'
p1000
S'19200'
p1001
sS'maximum_size'
p1002
S'14336'
p1003
sS'protocol'
p1004
S'arduino'
p1005
ssS'name'
p1006
S'Arduino NG or older w/ ATmega168'
p1007
sg59
S'/usr/share/arduino/hardware/arduino'
p1008
saa(lp1009
S'atmega8'
p1010
a(dp1011
S'build'
p1012
(dp1013
S'core'
p1014
S'arduino'
p1015
sS'mcu'
p1016
S'atmega8'
p1017
sS'f_cpu'
p1018
S'16000000L'
p1019
sS'variant'
p1020
S'standard'
p1021
ssS'bootloader'
p1022
(dp1023
S'high_fuses'
p1024
S'0xca'
p1025
sS'low_fuses'
p1026
S'0xdf'
p1027
sS'lock_bits'
p1028
S'0x0F'
p1029
sS'file'
p1030
S'ATmegaBOOT-prod-firmware-2009-11-07.hex'
p1031
sS'path'
p1032
S'atmega8'
p1033
sS'unlock_bits'
p1034
S'0x3F'
p1035
ssS'upload'
p1036
(dp1037
S'speed'
p1038
S'19200'
p1039
sS'maximum_size'
p1040
S'7168'
p1041
sS'protocol'
p1042
S'arduino'
p1043
ssS'name'
p1044
S'Arduino NG or older w/ ATmega8'
p1045
sg59
S'/usr/share/arduino/hardware/arduino'
p1046
saa(lp1047
S'robotControl'
p1048
a(dp1049
S'build'
p1050
(dp1051
S'core'
p1052
S'robot'
p1053
sS'f_cpu'
p1054
S'16000000L'
p1055
sS'vid'
p1056
S'0x2341'
p1057
sS'pid'
p1058
S'0x8038'
p1059
sS'variant'
p1060
S'robot_control'
p1061
sS'mcu'
p1062
S'atmega32u4'
p1063
ssS'bootloader'
p1064
(dp1065
S'extended_fuses'
p1066
S'0xcb'
p1067
sS'high_fuses'
p1068
S'0xd8'
p1069
sS'low_fuses'
p1070
S'0xff'
p1071
sS'lock_bits'
p1072
S'0x2F'
p1073
sS'file'
p1074
S'Caterina-Robot-Control.hex'
p1075
sS'path'
p1076
S'caterina-Arduino_Robot'
p1077
sS'unlock_bits'
p1078
S'0x3F'
p1079
ssS'upload'
p1080
(dp1081
S'speed'
p1082
S'57600'
p1083
sS'maximum_size'
p1084
S'28672'
p1085
sS'protocol'
p1086
S'avr109'
p1087
sS'disable_flushing'
p1088
S'true'
p1089
ssS'name'
p1090
S'Arduino Robot Control'
p1091
sg59
S'/usr/share/arduino/hardware/arduino'
p1092
saa(lp1093
S'robotMotor'
p1094
a(dp1095
S'build'
p1096
(dp1097
S'core'
p1098
S'robot'
p1099
sS'f_cpu'
p1100
S'16000000L'
p1101
sS'vid'
p1102
S'0x2341'
p1103
sS'pid'
p1104
S'0x8039'
p1105
sS'variant'
p1106
S'robot_motor'
p1107
sS'mcu'
p1108
S'atmega32u4'
p1109
ssS'bootloader'
p1110
(dp1111
S'extended_fuses'
p1112
S'0xcb'
p1113
sS'high_fuses'
p1114
S'0xd8'
p1115
sS'low_fuses'
p1116
S'0xff'
p1117
sS'lock_bits'
p1118
S'0x2F'
p1119
sS'file'
p1120
S'Caterina-Robot-Motor.hex'
p1121
sS'path'
p1122
S'caterina-Arduino_Robot'
p1123
sS'unlock_bits'
p1124
S'0x3F'
p1125
ssS'upload'
p1126
(dp1127
S'speed'
p1128
S'57600'
p1129
sS'maximum_size'
p1130
S'28672'
p1131
sS'protocol'
p1132
S'avr109'
p1133
sS'disable_flushing'
p1134
S'true'
p1135
ssS'name'
p1136
S'Arduino Robot Motor'
p1137
sg59
S'/usr/share/arduino/hardware/arduino'
p1138
saatp1139
Rp1140
(dp1141
S'default'
p1142
S'uno'
p1143
sbtp1144
a.